; Function Attrs: mustprogress uwtable
define noundef double @_ZNK8QuantLib23FittedBondDiscountCurve13FittingMethod11FittingCost5valueERKNS_5ArrayE(ptr noundef nonnull align 8 dereferenceable(16) %this, ptr noundef nonnull align 8 dereferenceable(16) %x) unnamed_addr #8 align 2 personality ptr @__gxx_personality_v0 {
entry:
  %vals = alloca %"class.QuantLib::Array", align 8
  call void @llvm.lifetime.start.p0(i64 16, ptr nonnull %vals) #29
  %vtable = load ptr, ptr %this, align 8, !tbaa !33
  %vfn = getelementptr inbounds i8, ptr %vtable, i64 24
  %0 = load ptr, ptr %vfn, align 8
  call void %0(ptr dead_on_unwind nonnull writable sret(%"class.QuantLib::Array") align 8 %vals, ptr noundef nonnull align 8 dereferenceable(16) %this, ptr noundef nonnull align 8 dereferenceable(16) %x)
  %1 = load ptr, ptr %vals, align 8, !tbaa !3
  %n_.i = getelementptr inbounds nuw i8, ptr %vals, i64 8
  %2 = load i64, ptr %n_.i, align 8, !tbaa !118
  %add.ptr.i = getelementptr inbounds nuw double, ptr %1, i64 %2
  %cmp.not5 = icmp eq i64 %2, 0
  br i1 %cmp.not5, label %for.cond.cleanup, label %for.body

for.cond.cleanup:                                 ; preds = %for.body, %entry
  %squaredError.0.lcssa = phi double [ 0.000000e+00, %entry ], [ %add, %for.body ]
  %cmp.not.i.i = icmp eq ptr %1, null
  br i1 %cmp.not.i.i, label %_ZN8QuantLib5ArrayD2Ev.exit, label %_ZNKSt14default_deleteIA_dEclIdEENSt9enable_ifIXsr14is_convertibleIPA_T_PS0_EE5valueEvE4typeEPS4_.exit.i.i

_ZNKSt14default_deleteIA_dEclIdEENSt9enable_ifIXsr14is_convertibleIPA_T_PS0_EE5valueEvE4typeEPS4_.exit.i.i: ; preds = %for.cond.cleanup
  call void @_ZdaPv(ptr noundef nonnull %1) #32
  br label %_ZN8QuantLib5ArrayD2Ev.exit

_ZN8QuantLib5ArrayD2Ev.exit:                      ; preds = %for.cond.cleanup, %_ZNKSt14default_deleteIA_dEclIdEENSt9enable_ifIXsr14is_convertibleIPA_T_PS0_EE5valueEvE4typeEPS4_.exit.i.i
  call void @llvm.lifetime.end.p0(i64 16, ptr nonnull %vals) #29
  ret double %squaredError.0.lcssa

for.body:                                         ; preds = %entry, %for.body
  %squaredError.07 = phi double [ %add, %for.body ], [ 0.000000e+00, %entry ]
  %__begin1.06 = phi ptr [ %incdec.ptr, %for.body ], [ %1, %entry ]
  %3 = load double, ptr %__begin1.06, align 8, !tbaa !132
  %add = fadd double %squaredError.07, %3
  %incdec.ptr = getelementptr inbounds nuw i8, ptr %__begin1.06, i64 8
  %cmp.not = icmp eq ptr %incdec.ptr, %add.ptr.i
  br i1 %cmp.not, label %for.cond.cleanup, label %for.body
}